; Function Attrs: mustprogress uwtable
define internal noundef ptr @_ZL16cmGetProjectNamePv(ptr noundef %0) #6 {
  %2 = alloca %"class.std::__cxx11::basic_string", align 8
  %3 = alloca %class.cmStateSnapshot, align 8
  %4 = load atomic i8, ptr @_ZGVZL16cmGetProjectNamePvE4nameB5cxx11 acquire, align 8
  %5 = icmp eq i8 %4, 0
  br i1 %5, label %6, label %10, !prof !103

6:                                                ; preds = %1
  %7 = tail call i32 @__cxa_guard_acquire(ptr nonnull @_ZGVZL16cmGetProjectNamePvE4nameB5cxx11) #30
  %.not = icmp eq i32 %7, 0
  br i1 %.not, label %10, label %8

8:                                                ; preds = %6
  tail call void @_ZNSt7__cxx1112basic_stringIcSt11char_traitsIcESaIcEEC1Ev(ptr noundef nonnull align 8 dereferenceable(32) @_ZZL16cmGetProjectNamePvE4nameB5cxx11) #30
  %9 = tail call i32 @__cxa_atexit(ptr nonnull @_ZNSt7__cxx1112basic_stringIcSt11char_traitsIcESaIcEED1Ev, ptr nonnull @_ZZL16cmGetProjectNamePvE4nameB5cxx11, ptr nonnull @__dso_handle) #30
  tail call void @__cxa_guard_release(ptr nonnull @_ZGVZL16cmGetProjectNamePvE4nameB5cxx11) #30
  br label %10

10:                                               ; preds = %8, %6, %1
  call void @_ZNK10cmMakefile16GetStateSnapshotEv(ptr dead_on_unwind nonnull writable sret(%class.cmStateSnapshot) align 8 %3, ptr noundef nonnull align 8 dereferenceable(3520) %0)
  call void @_ZNK15cmStateSnapshot14GetProjectNameB5cxx11Ev(ptr dead_on_unwind nonnull writable sret(%"class.std::__cxx11::basic_string") align 8 %2, ptr noundef nonnull align 8 dereferenceable(24) %3)
  %11 = call noundef nonnull align 8 dereferenceable(32) ptr @_ZNSt7__cxx1112basic_stringIcSt11char_traitsIcESaIcEEaSEOS4_(ptr noundef nonnull align 8 dereferenceable(32) @_ZZL16cmGetProjectNamePvE4nameB5cxx11, ptr noundef nonnull align 8 dereferenceable(32) %2) #30
  call void @_ZNSt7__cxx1112basic_stringIcSt11char_traitsIcESaIcEED1Ev(ptr noundef nonnull align 8 dereferenceable(32) %2) #30
  %12 = call noundef ptr @_ZNKSt7__cxx1112basic_stringIcSt11char_traitsIcESaIcEE5c_strEv(ptr noundef nonnull align 8 dereferenceable(32) @_ZZL16cmGetProjectNamePvE4nameB5cxx11) #30
  ret ptr %12
}